target datalayout = "e-m:e-p270:32:32-p271:32:32-p272:64:64-i64:64-i128:128-f80:128-n8:16:32:64-S128"
target triple = "x86_64-pc-linux-gnu"

%"class.std::optional" = type { %"struct.std::_Optional_base" }
%"struct.std::_Optional_base" = type { %"struct.std::_Optional_payload" }
%"struct.std::_Optional_payload" = type { %"struct.std::_Optional_payload_base.base", [3 x i8] }
%"struct.std::_Optional_payload_base.base" = type <{ %"union.std::_Optional_payload_base<float>::_Storage", i8 }>
%"union.std::_Optional_payload_base<float>::_Storage" = type { float }
%"struct.std::_Optional_payload_base" = type <{ %"union.std::_Optional_payload_base<float>::_Storage", i8, [3 x i8] }>

@debug = external global ptr, align 8
@.str = private unnamed_addr constant [38 x i8] c"t=%g, t0=%g, b=%g, e=%g, dt=%g: r=%d\0A\00", align 1
@_ZTISt19bad_optional_access = linkonce_odr constant { ptr, ptr, ptr } { ptr getelementptr inbounds (ptr, ptr @_ZTVN10__cxxabiv120__si_class_type_infoE, i64 2), ptr @_ZTSSt19bad_optional_access, ptr @_ZTISt9exception }, comdat, align 8
@_ZTVSt19bad_optional_access = linkonce_odr unnamed_addr constant { [5 x ptr] } { [5 x ptr] [ptr null, ptr @_ZTISt19bad_optional_access, ptr @_ZNSt19bad_optional_accessD2Ev, ptr @_ZNSt19bad_optional_accessD0Ev, ptr @_ZNKSt19bad_optional_access4whatEv] }, comdat, align 8
@_ZTVSt9exception = external unnamed_addr constant { [5 x ptr] }, align 8

; Function Attrs: mustprogress nounwind uwtable
define linkonce_odr void @_ZNSt9exceptionC2Ev(ptr noundef nonnull align 8 dereferenceable(8) %0) unnamed_addr #0 comdat align 2 {
  %2 = alloca ptr, align 8
  store ptr %0, ptr %2, align 8
  %3 = load ptr, ptr %2, align 8
  store ptr getelementptr inbounds inrange(-16, 24) ({ [5 x ptr] }, ptr @_ZTVSt9exception, i32 0, i32 0, i32 2), ptr %3, align 8
  ret void
}

; Function Attrs: mustprogress nounwind uwtable
define linkonce_odr noundef nonnull align 4 dereferenceable(4) ptr @_ZNKSt22_Optional_payload_baseIfE6_M_getEv(ptr noundef nonnull align 4 dereferenceable(5) %0) #0 comdat align 2 {
  %2 = alloca ptr, align 8
  store ptr %0, ptr %2, align 8
  %3 = load ptr, ptr %2, align 8
  %4 = getelementptr inbounds %"struct.std::_Optional_payload_base", ptr %3, i32 0, i32 0
  ret ptr %4
}

; Function Attrs: mustprogress nounwind uwtable
define linkonce_odr void @_ZNSt19bad_optional_accessC2Ev(ptr noundef nonnull align 8 dereferenceable(8) %0) unnamed_addr #0 comdat align 2 {
  %2 = alloca ptr, align 8
  store ptr %0, ptr %2, align 8
  %3 = load ptr, ptr %2, align 8
  call void @_ZNSt9exceptionC2Ev(ptr noundef nonnull align 8 dereferenceable(8) %3) #12
  store ptr getelementptr inbounds inrange(-16, 24) ({ [5 x ptr] }, ptr @_ZTVSt19bad_optional_access, i32 0, i32 0, i32 2), ptr %3, align 8
  ret void
}

; Function Attrs: mustprogress nounwind uwtable
define linkonce_odr noundef nonnull align 4 dereferenceable(4) ptr @_ZNSt22_Optional_payload_baseIfE6_M_getEv(ptr noundef nonnull align 4 dereferenceable(5) %0) #0 comdat align 2 {
  %2 = alloca ptr, align 8
  store ptr %0, ptr %2, align 8
  %3 = load ptr, ptr %2, align 8
  %4 = getelementptr inbounds %"struct.std::_Optional_payload_base", ptr %3, i32 0, i32 0
  ret ptr %4
}

; Function Attrs: mustprogress nounwind uwtable
define linkonce_odr noundef nonnull align 4 dereferenceable(4) ptr @_ZNKSt19_Optional_base_implIfSt14_Optional_baseIfLb1ELb1EEE6_M_getEv(ptr noundef nonnull align 1 dereferenceable(1) %0) #0 comdat align 2 {
  %2 = alloca ptr, align 8
  store ptr %0, ptr %2, align 8
  %3 = load ptr, ptr %2, align 8
  br label %4

4:                                                ; preds = %1
  br label %5

5:                                                ; preds = %4
  br label %6

6:                                                ; preds = %5
  %7 = getelementptr inbounds %"struct.std::_Optional_base", ptr %3, i32 0, i32 0
  %8 = call noundef nonnull align 4 dereferenceable(4) ptr @_ZNKSt22_Optional_payload_baseIfE6_M_getEv(ptr noundef nonnull align 4 dereferenceable(5) %7) #12
  ret ptr %8
}

; Function Attrs: mustprogress noreturn uwtable
define linkonce_odr void @_ZSt27__throw_bad_optional_accessv() #5 comdat {
  %1 = call ptr @__cxa_allocate_exception(i64 8) #12
  call void @llvm.memset.p0.i64(ptr align 16 %1, i8 0, i64 8, i1 false)
  call void @_ZNSt19bad_optional_accessC2Ev(ptr noundef nonnull align 8 dereferenceable(8) %1) #12
  call void @__cxa_throw(ptr %1, ptr @_ZTISt19bad_optional_access, ptr @_ZNSt19bad_optional_accessD2Ev) #13
  unreachable
}

; Function Attrs: mustprogress nounwind uwtable
define linkonce_odr noundef nonnull align 4 dereferenceable(4) ptr @_ZNSt19_Optional_base_implIfSt14_Optional_baseIfLb1ELb1EEE6_M_getEv(ptr noundef nonnull align 1 dereferenceable(1) %0) #0 comdat align 2 {
  %2 = alloca ptr, align 8
  store ptr %0, ptr %2, align 8
  %3 = load ptr, ptr %2, align 8
  br label %4

4:                                                ; preds = %1
  br label %5

5:                                                ; preds = %4
  br label %6

6:                                                ; preds = %5
  %7 = getelementptr inbounds %"struct.std::_Optional_base", ptr %3, i32 0, i32 0
  %8 = call noundef nonnull align 4 dereferenceable(4) ptr @_ZNSt22_Optional_payload_baseIfE6_M_getEv(ptr noundef nonnull align 4 dereferenceable(5) %7) #12
  ret ptr %8
}

; Function Attrs: mustprogress nounwind uwtable
define linkonce_odr noundef zeroext i1 @_ZNKSt19_Optional_base_implIfSt14_Optional_baseIfLb1ELb1EEE13_M_is_engagedEv(ptr noundef nonnull align 1 dereferenceable(1) %0) #0 comdat align 2 {
  %2 = alloca ptr, align 8
  store ptr %0, ptr %2, align 8
  %3 = load ptr, ptr %2, align 8
  %4 = getelementptr inbounds %"struct.std::_Optional_base", ptr %3, i32 0, i32 0
  %5 = getelementptr inbounds %"struct.std::_Optional_payload_base", ptr %4, i32 0, i32 1
  %6 = load i8, ptr %5, align 4
  %7 = trunc i8 %6 to i1
  ret i1 %7
}

; Function Attrs: mustprogress nounwind uwtable
define linkonce_odr noundef float @_ZNKRSt8optionalIfE8value_orIiEEfOT_(ptr noundef nonnull align 4 dereferenceable(8) %0, ptr noundef nonnull align 4 dereferenceable(4) %1) #0 comdat align 2 {
  %3 = alloca float, align 4
  %4 = alloca ptr, align 8
  %5 = alloca ptr, align 8
  store ptr %0, ptr %4, align 8
  store ptr %1, ptr %5, align 8
  %6 = load ptr, ptr %4, align 8
  %7 = call noundef zeroext i1 @_ZNKSt19_Optional_base_implIfSt14_Optional_baseIfLb1ELb1EEE13_M_is_engagedEv(ptr noundef nonnull align 1 dereferenceable(1) %6) #12
  br i1 %7, label %8, label %11

8:                                                ; preds = %2
  %9 = call noundef nonnull align 4 dereferenceable(4) ptr @_ZNKSt19_Optional_base_implIfSt14_Optional_baseIfLb1ELb1EEE6_M_getEv(ptr noundef nonnull align 1 dereferenceable(1) %6) #12
  %10 = load float, ptr %9, align 4
  store float %10, ptr %3, align 4
  br label %15

11:                                               ; preds = %2
  %12 = load ptr, ptr %5, align 8
  %13 = load i32, ptr %12, align 4
  %14 = sitofp i32 %13 to float
  store float %14, ptr %3, align 4
  br label %15

15:                                               ; preds = %11, %8
  %16 = load float, ptr %3, align 4
  ret float %16
}

; Function Attrs: mustprogress nounwind uwtable
define noundef zeroext i1 @_Z8bRmod_fddddb(double noundef %0, double noundef %1, double noundef %2, i1 noundef zeroext %3) #0 {
  %5 = alloca double, align 8
  %6 = alloca double, align 8
  %7 = alloca double, align 8
  %8 = alloca i8, align 1
  %9 = alloca i32, align 4
  %10 = alloca double, align 8
  store double %0, ptr %5, align 8
  store double %1, ptr %6, align 8
  store double %2, ptr %7, align 8
  %11 = zext i1 %3 to i8
  store i8 %11, ptr %8, align 1
  %12 = load i8, ptr %8, align 1
  %13 = trunc i8 %12 to i1
  %14 = select i1 %13, double 0x3CB0000000000000, double 0x3E80000000000000
  %15 = fmul double 2.000000e+00, %14
  store double %15, ptr %10, align 8
  %16 = load double, ptr %5, align 8
  %17 = load double, ptr %6, align 8
  %18 = fsub double %16, %17
  %19 = load double, ptr %10, align 8
  %20 = load double, ptr %5, align 8
  %21 = call double @llvm.fmuladd.f64(double %19, double %20, double %18)
  %22 = load double, ptr %7, align 8
  %23 = fdiv double %21, %22
  %24 = fptosi double %23 to i32
  store i32 %24, ptr %9, align 4
  %25 = load double, ptr %5, align 8
  %26 = load double, ptr %6, align 8
  %27 = fsub double %25, %26
  %28 = load double, ptr %7, align 8
  %29 = load i32, ptr %9, align 4
  %30 = sitofp i32 %29 to double
  %31 = fneg double %28
  %32 = call double @llvm.fmuladd.f64(double %31, double %30, double %27)
  %33 = call double @llvm.fabs.f64(double %32)
  %34 = load double, ptr %10, align 8
  %35 = load double, ptr %5, align 8
  %36 = call double @llvm.fabs.f64(double %35)
  %37 = fmul double %34, %36
  %38 = fcmp ole double %33, %37
  ret i1 %38
}

; Function Attrs: mustprogress uwtable
define linkonce_odr noundef nonnull align 4 dereferenceable(4) ptr @_ZNRSt8optionalIfE5valueEv(ptr noundef nonnull align 4 dereferenceable(8) %0) #2 comdat align 2 {
  %2 = alloca ptr, align 8
  store ptr %0, ptr %2, align 8
  %3 = load ptr, ptr %2, align 8
  %4 = call noundef zeroext i1 @_ZNKSt19_Optional_base_implIfSt14_Optional_baseIfLb1ELb1EEE13_M_is_engagedEv(ptr noundef nonnull align 1 dereferenceable(1) %3) #12
  br i1 %4, label %5, label %7

5:                                                ; preds = %1
  %6 = call noundef nonnull align 4 dereferenceable(4) ptr @_ZNSt19_Optional_base_implIfSt14_Optional_baseIfLb1ELb1EEE6_M_getEv(ptr noundef nonnull align 1 dereferenceable(1) %3) #12
  ret ptr %6

7:                                                ; preds = %1
  call void @_ZSt27__throw_bad_optional_accessv() #13
  unreachable
}

; Function Attrs: mustprogress nounwind uwtable
define linkonce_odr noundef zeroext i1 @_ZNKSt8optionalIfE9has_valueEv(ptr noundef nonnull align 4 dereferenceable(8) %0) #0 comdat align 2 {
  %2 = alloca ptr, align 8
  store ptr %0, ptr %2, align 8
  %3 = load ptr, ptr %2, align 8
  %4 = call noundef zeroext i1 @_ZNKSt19_Optional_base_implIfSt14_Optional_baseIfLb1ELb1EEE13_M_is_engagedEv(ptr noundef nonnull align 1 dereferenceable(1) %3) #12
  ret i1 %4
}

; Function Attrs: mustprogress uwtable
define noundef i32 @_Z12check_times2ffb(float noundef %0, float noundef %1, i1 noundef zeroext %2) #2 {
  %4 = alloca float, align 4
  %5 = alloca float, align 4
  %6 = alloca i8, align 1
  %7 = alloca i32, align 4
  %8 = alloca %"class.std::optional", align 4
  %9 = alloca %"class.std::optional", align 4
  %10 = alloca %"class.std::optional", align 4
  %11 = alloca i32, align 4
  %12 = alloca i32, align 4
  %13 = alloca i32, align 4
  store float %0, ptr %4, align 4
  store float %1, ptr %5, align 4
  %14 = zext i1 %2 to i8
  store i8 %14, ptr %6, align 1
  store i8 0, ptr %6, align 1
  store i32 -1, ptr %7, align 4
  %15 = call i64 @_Z9timeValue11TimeControl(i32 noundef 0)
  %16 = getelementptr inbounds %"class.std::optional", ptr %8, i32 0, i32 0
  %17 = getelementptr inbounds %"struct.std::_Optional_base", ptr %16, i32 0, i32 0
  store i64 %15, ptr %17, align 4
  %18 = call i64 @_Z9timeValue11TimeControl(i32 noundef 1)
  %19 = getelementptr inbounds %"class.std::optional", ptr %9, i32 0, i32 0
  %20 = getelementptr inbounds %"struct.std::_Optional_base", ptr %19, i32 0, i32 0
  store i64 %18, ptr %20, align 4
  %21 = call i64 @_Z9timeValue11TimeControl(i32 noundef 2)
  %22 = getelementptr inbounds %"class.std::optional", ptr %10, i32 0, i32 0
  %23 = getelementptr inbounds %"struct.std::_Optional_base", ptr %22, i32 0, i32 0
  store i64 %21, ptr %23, align 4
  %24 = call noundef zeroext i1 @_ZNKSt8optionalIfE9has_valueEv(ptr noundef nonnull align 4 dereferenceable(8) %8) #12
  br i1 %24, label %25, label %30

25:                                               ; preds = %3
  %26 = load float, ptr %4, align 4
  %27 = call noundef nonnull align 4 dereferenceable(4) ptr @_ZNRSt8optionalIfE5valueEv(ptr noundef nonnull align 4 dereferenceable(8) %8)
  %28 = load float, ptr %27, align 4
  %29 = fcmp oge float %26, %28
  br i1 %29, label %30, label %53

30:                                               ; preds = %25, %3
  %31 = call noundef zeroext i1 @_ZNKSt8optionalIfE9has_valueEv(ptr noundef nonnull align 4 dereferenceable(8) %9) #12
  br i1 %31, label %32, label %37

32:                                               ; preds = %30
  %33 = load float, ptr %4, align 4
  %34 = call noundef nonnull align 4 dereferenceable(4) ptr @_ZNRSt8optionalIfE5valueEv(ptr noundef nonnull align 4 dereferenceable(8) %9)
  %35 = load float, ptr %34, align 4
  %36 = fcmp ole float %33, %35
  br i1 %36, label %37, label %53

37:                                               ; preds = %32, %30
  %38 = call noundef zeroext i1 @_ZNKSt8optionalIfE9has_valueEv(ptr noundef nonnull align 4 dereferenceable(8) %10) #12
  br i1 %38, label %39, label %51

39:                                               ; preds = %37
  %40 = load float, ptr %4, align 4
  %41 = fpext float %40 to double
  %42 = load float, ptr %5, align 4
  %43 = fpext float %42 to double
  %44 = call noundef nonnull align 4 dereferenceable(4) ptr @_ZNRSt8optionalIfE5valueEv(ptr noundef nonnull align 4 dereferenceable(8) %10)
  %45 = load float, ptr %44, align 4
  %46 = fpext float %45 to double
  %47 = load i8, ptr %6, align 1
  %48 = trunc i8 %47 to i1
  %49 = call noundef zeroext i1 @_Z8bRmod_fddddb(double noundef %41, double noundef %43, double noundef %46, i1 noundef zeroext %48)
  br i1 %49, label %51, label %50

50:                                               ; preds = %39
  store i32 -1, ptr %7, align 4
  br label %52

51:                                               ; preds = %39, %37
  store i32 0, ptr %7, align 4
  br label %52

52:                                               ; preds = %51, %50
  br label %62

53:                                               ; preds = %32, %25
  %54 = call noundef zeroext i1 @_ZNKSt8optionalIfE9has_valueEv(ptr noundef nonnull align 4 dereferenceable(8) %9) #12
  br i1 %54, label %55, label %61

55:                                               ; preds = %53
  %56 = load float, ptr %4, align 4
  %57 = call noundef nonnull align 4 dereferenceable(4) ptr @_ZNRSt8optionalIfE5valueEv(ptr noundef nonnull align 4 dereferenceable(8) %9)
  %58 = load float, ptr %57, align 4
  %59 = fcmp oge float %56, %58
  br i1 %59, label %60, label %61

60:                                               ; preds = %55
  store i32 1, ptr %7, align 4
  br label %61

61:                                               ; preds = %60, %55, %53
  br label %62

62:                                               ; preds = %61, %52
  %63 = load ptr, ptr @debug, align 8
  %64 = icmp ne ptr %63, null
  br i1 %64, label %65, label %79

65:                                               ; preds = %62
  %66 = load ptr, ptr @debug, align 8
  %67 = load float, ptr %4, align 4
  %68 = fpext float %67 to double
  %69 = load float, ptr %5, align 4
  %70 = fpext float %69 to double
  store i32 0, ptr %11, align 4
  %71 = call noundef float @_ZNKRSt8optionalIfE8value_orIiEEfOT_(ptr noundef nonnull align 4 dereferenceable(8) %8, ptr noundef nonnull align 4 dereferenceable(4) %11)
  %72 = fpext float %71 to double
  store i32 0, ptr %12, align 4
  %73 = call noundef float @_ZNKRSt8optionalIfE8value_orIiEEfOT_(ptr noundef nonnull align 4 dereferenceable(8) %9, ptr noundef nonnull align 4 dereferenceable(4) %12)
  %74 = fpext float %73 to double
  store i32 0, ptr %13, align 4
  %75 = call noundef float @_ZNKRSt8optionalIfE8value_orIiEEfOT_(ptr noundef nonnull align 4 dereferenceable(8) %10, ptr noundef nonnull align 4 dereferenceable(4) %13)
  %76 = fpext float %75 to double
  %77 = load i32, ptr %7, align 4
  %78 = call i32 (ptr, ptr, ...) @fprintf(ptr noundef %66, ptr noundef @.str, double noundef %68, double noundef %70, double noundef %72, double noundef %74, double noundef %76, i32 noundef %77) #12
  br label %79

79:                                               ; preds = %65, %62
  %80 = load i32, ptr %7, align 4
  ret i32 %80
}