; Function Attrs: mustprogress uwtable
define noundef i32 @_Z12check_times2ffb(float noundef %0, float noundef %1, i1 zeroext %2) local_unnamed_addr #2 {
  %4 = tail call i64 @_Z9timeValue11TimeControl(i32 noundef 0)
  %.sroa.027.0.extract.trunc = trunc i64 %4 to i32
  %5 = bitcast i32 %.sroa.027.0.extract.trunc to float
  %6 = tail call i64 @_Z9timeValue11TimeControl(i32 noundef 1)
  %.sroa.020.0.extract.trunc = trunc i64 %6 to i32
  %7 = bitcast i32 %.sroa.020.0.extract.trunc to float
  %8 = tail call i64 @_Z9timeValue11TimeControl(i32 noundef 2)
  %.sroa.0.0.extract.trunc = trunc i64 %8 to i32
  %9 = bitcast i32 %.sroa.0.0.extract.trunc to float
  %.sroa.3.0.extract.shift = lshr i64 %8, 32
  %10 = and i64 %4, 4294967296
  %11 = icmp ne i64 %10, 0
  %12 = fcmp ugt float %5, %0
  %or.cond = select i1 %11, i1 %12, i1 false
  %13 = and i64 %6, 4294967296
  %14 = icmp ne i64 %13, 0
  %15 = fcmp ult float %7, %0
  %or.cond35 = select i1 %14, i1 %15, i1 false
  %or.cond39 = select i1 %or.cond, i1 true, i1 %or.cond35
  br i1 %or.cond39, label %33, label %16

16:                                               ; preds = %3
  %17 = trunc i64 %.sroa.3.0.extract.shift to i1
  br i1 %17, label %_ZNRSt8optionalIfE5valueEv.exit11, label %32

_ZNRSt8optionalIfE5valueEv.exit11:                ; preds = %16
  %18 = fpext float %0 to double
  %19 = fpext float %1 to double
  %20 = fpext float %9 to double
  %21 = fsub double %18, %19
  %22 = tail call double @llvm.fmuladd.f64(double %18, double 0x3E90000000000000, double %21)
  %23 = fdiv double %22, %20
  %24 = fptosi double %23 to i32
  %25 = sitofp i32 %24 to double
  %26 = fneg double %20
  %27 = tail call double @llvm.fmuladd.f64(double %26, double %25, double %21)
  %28 = tail call double @llvm.fabs.f64(double %27)
  %29 = tail call double @llvm.fabs.f64(double %18)
  %30 = fmul double %29, 0x3E90000000000000
  %31 = fcmp ugt double %28, %30
  br i1 %31, label %35, label %32

32:                                               ; preds = %_ZNRSt8optionalIfE5valueEv.exit11, %16
  br label %35

33:                                               ; preds = %3
  %34 = fcmp ole float %7, %0
  %or.cond37.not = select i1 %14, i1 %34, i1 false
  %spec.select = select i1 %or.cond37.not, i32 1, i32 -1
  br label %35

35:                                               ; preds = %33, %_ZNRSt8optionalIfE5valueEv.exit11, %32
  %.0 = phi i32 [ 0, %32 ], [ -1, %_ZNRSt8optionalIfE5valueEv.exit11 ], [ %spec.select, %33 ]
  %36 = load ptr, ptr @debug, align 8
  %.not = icmp eq ptr %36, null
  br i1 %.not, label %48, label %37

37:                                               ; preds = %35
  %38 = fpext float %0 to double
  %39 = fpext float %1 to double
  %40 = fpext float %5 to double
  %41 = select i1 %11, double %40, double 0.000000e+00
  %42 = fpext float %7 to double
  %43 = select i1 %14, double %42, double 0.000000e+00
  %44 = trunc i64 %.sroa.3.0.extract.shift to i1
  %45 = fpext float %9 to double
  %46 = select i1 %44, double %45, double 0.000000e+00
  %47 = tail call i32 (ptr, ptr, ...) @fprintf(ptr noundef nonnull %36, ptr noundef nonnull @.str, double noundef %38, double noundef %39, double noundef %41, double noundef %43, double noundef %46, i32 noundef %.0) #18
  br label %48

48:                                               ; preds = %37, %35
  ret i32 %.0
}